; Function Attrs: mustprogress nofree norecurse nosync nounwind memory(readwrite, inaccessiblemem: none) uwtable
define internal void @_ZN5vcpkg4Hash12_GLOBAL__N_19ShaHasherINS1_15Sha256AlgorithmEE9add_bytesEPKvS6_(ptr nocapture noundef nonnull align 8 dereferenceable(120) %0, ptr noundef %1, ptr noundef %2) unnamed_addr #11 align 2 personality ptr @__gxx_personality_v0 {
  %4 = getelementptr inbounds i8, ptr %0, i64 104
  %5 = ptrtoint ptr %2 to i64
  %6 = load i64, ptr %4, align 8
  %7 = sub i64 64, %6
  %8 = ptrtoint ptr %1 to i64
  %9 = sub i64 %5, %8
  %.not.i15 = icmp ult i64 %9, %7
  br i1 %.not.i15, label %._crit_edge, label %.lr.ph

.lr.ph:                                           ; preds = %3
  %10 = getelementptr inbounds i8, ptr %0, i64 40
  %11 = getelementptr inbounds i8, ptr %0, i64 112
  %12 = getelementptr inbounds i8, ptr %0, i64 8
  br label %13

13:                                               ; preds = %.lr.ph, %33
  %14 = phi i64 [ %7, %.lr.ph ], [ 64, %33 ]
  %15 = phi i64 [ %6, %.lr.ph ], [ 0, %33 ]
  %.016 = phi ptr [ %1, %.lr.ph ], [ %16, %33 ]
  %16 = getelementptr inbounds i8, ptr %.016, i64 %14
  %.not.i.i.i.i.i.i = icmp eq i64 %15, 64
  br i1 %.not.i.i.i.i.i.i, label %_ZN5vcpkg4Hash12_GLOBAL__N_19ShaHasherINS1_15Sha256AlgorithmEE18add_to_unprocessedEPKvS6_.exit, label %17

17:                                               ; preds = %13
  %18 = getelementptr inbounds i8, ptr %10, i64 %15
  tail call void @llvm.memmove.p0.p0.i64(ptr nonnull align 1 %18, ptr align 1 %.016, i64 %14, i1 false)
  %.pre.i = load i64, ptr %4, align 8
  br label %_ZN5vcpkg4Hash12_GLOBAL__N_19ShaHasherINS1_15Sha256AlgorithmEE18add_to_unprocessedEPKvS6_.exit

._crit_edge:                                      ; preds = %33, %3
  %.0.lcssa = phi ptr [ %1, %3 ], [ %16, %33 ]
  %.lcssa10 = phi i64 [ %6, %3 ], [ 0, %33 ]
  %.lcssa = phi i64 [ %9, %3 ], [ %35, %33 ]
  %.not.i.i.i.i.i20.i = icmp eq ptr %.0.lcssa, %2
  br i1 %.not.i.i.i.i.i20.i, label %_ZN5vcpkg4Hash12_GLOBAL__N_19ShaHasherINS1_15Sha256AlgorithmEE18add_to_unprocessedEPKvS6_.exit.thread, label %19

19:                                               ; preds = %._crit_edge
  %20 = getelementptr inbounds i8, ptr %0, i64 40
  %21 = getelementptr inbounds i8, ptr %20, i64 %.lcssa10
  tail call void @llvm.memmove.p0.p0.i64(ptr nonnull align 1 %21, ptr align 1 %.0.lcssa, i64 %.lcssa, i1 false)
  %.pre22.i = load i64, ptr %4, align 8
  br label %_ZN5vcpkg4Hash12_GLOBAL__N_19ShaHasherINS1_15Sha256AlgorithmEE18add_to_unprocessedEPKvS6_.exit.thread

_ZN5vcpkg4Hash12_GLOBAL__N_19ShaHasherINS1_15Sha256AlgorithmEE18add_to_unprocessedEPKvS6_.exit.thread: ; preds = %._crit_edge, %19
  %22 = phi i64 [ %.pre22.i, %19 ], [ %.lcssa10, %._crit_edge ]
  %23 = add i64 %22, %.lcssa
  store i64 %23, ptr %4, align 8
  %24 = shl i64 %.lcssa, 3
  %25 = getelementptr inbounds i8, ptr %0, i64 112
  %26 = load i64, ptr %25, align 8
  %27 = add i64 %26, %24
  store i64 %27, ptr %25, align 8
  br label %.loopexit

_ZN5vcpkg4Hash12_GLOBAL__N_19ShaHasherINS1_15Sha256AlgorithmEE18add_to_unprocessedEPKvS6_.exit: ; preds = %13, %17
  %28 = phi i64 [ %.pre.i, %17 ], [ 64, %13 ]
  %29 = add i64 %28, %14
  store i64 %29, ptr %4, align 8
  %30 = shl i64 %14, 3
  %31 = load i64, ptr %11, align 8
  %32 = add i64 %31, %30
  store i64 %32, ptr %11, align 8
  %.not = icmp eq ptr %.016, null
  br i1 %.not, label %.loopexit, label %33

33:                                               ; preds = %_ZN5vcpkg4Hash12_GLOBAL__N_19ShaHasherINS1_15Sha256AlgorithmEE18add_to_unprocessedEPKvS6_.exit
  tail call fastcc void @_ZN5vcpkg4Hash12_GLOBAL__N_115Sha256Algorithm18process_full_chunkERKSt5arrayIhLm64EE(ptr noundef nonnull align 4 dereferenceable(32) %12, ptr noundef nonnull align 1 dereferenceable(64) %10) #21
  store i64 0, ptr %4, align 8
  %34 = ptrtoint ptr %16 to i64
  %35 = sub i64 %5, %34
  %.not.i = icmp ult i64 %35, 64
  br i1 %.not.i, label %._crit_edge, label %13, !llvm.loop !17

.loopexit:                                        ; preds = %_ZN5vcpkg4Hash12_GLOBAL__N_19ShaHasherINS1_15Sha256AlgorithmEE18add_to_unprocessedEPKvS6_.exit, %_ZN5vcpkg4Hash12_GLOBAL__N_19ShaHasherINS1_15Sha256AlgorithmEE18add_to_unprocessedEPKvS6_.exit.thread
  ret void
}